Certificate:
    Data:
        Version: 3 (0x2)
        Serial Number: 1 (0x1)
    Signature Algorithm: sha256WithRSAEncryption
        Issuer: CN=devcert
        Validity
            Not Before: Apr 29 16:00:36 2020 GMT
            Not After : Aug  2 16:00:36 2022 GMT
        Subject: CN=localhost
        Subject Public Key Info:
            Public Key Algorithm: rsaEncryption
                Public-Key: (2048 bit)
                Modulus:
                    00:9b:cb:a9:93:33:51:d8:ff:3f:fd:96:f3:d7:46:
                    67:5f:74:5b:2d:72:6c:5b:a4:1a:fd:89:0e:4b:db:
                    62:b9:db:d3:9f:d1:98:4a:eb:b6:73:3b:96:a8:10:
                    d9:fb:56:ee:49:49:5e:10:86:47:41:d2:df:bc:22:
                    47:a4:3b:7a:67:8f:a7:1d:b9:8e:20:80:59:22:5e:
                    bd:e4:19:49:31:14:4c:fd:e0:cb:1d:dc:3d:2f:31:
                    bd:e9:c1:81:82:99:0d:bb:ba:42:a9:98:fe:ca:03:
                    b9:d3:6a:26:9e:5c:a2:99:38:42:54:c7:48:12:e3:
                    08:b3:2b:10:4c:74:ca:f8:38:e7:4d:26:a7:d2:de:
                    23:31:e9:05:6d:3f:6e:6a:76:03:82:19:9d:01:52:
                    48:be:a4:72:98:4f:95:d2:3a:43:98:2a:a4:a0:2b:
                    d5:71:67:c2:93:9a:0d:e0:8a:4b:8b:1b:66:37:42:
                    17:01:76:61:87:08:be:65:58:ae:83:25:b8:16:18:
                    e3:50:d3:dd:2f:5f:f6:d8:1f:b2:ff:b3:ca:30:5d:
                    0a:6c:40:bd:e2:48:98:66:ec:8e:fc:a1:83:90:68:
                    e3:93:5c:87:c2:c4:40:ec:52:c3:ad:c4:cf:44:81:
                    55:b5:94:44:84:50:f8:3f:75:b4:cf:45:e2:97:03:
                    07:9b
                Exponent: 65537 (0x10001)
        X509v3 extensions:
            X509v3 Basic Constraints: critical
                CA:FALSE
            X509v3 Subject Key Identifier: 
                A6:B5:8A:6A:13:FF:B5:AF:97:7C:1E:C2:6C:CD:4C:EE:CC:6A:2A:E5
            X509v3 Authority Key Identifier: 
                keyid:B2:A7:96:53:42:8F:42:79:99:87:89:1F:A8:3A:89:22:BC:28:7D:91
                DirName:/CN=devcert
                serial:98:C8:ED:6E:A8:78:8D:F4

            X509v3 Key Usage: critical
                Digital Signature, Key Encipherment
            X509v3 Extended Key Usage: 
                TLS Web Server Authentication
            X509v3 Subject Alternative Name: 
                DNS:localhost, DNS:*.localhost
    Signature Algorithm: sha256WithRSAEncryption
         49:2c:c8:2f:73:08:b3:bd:02:1f:95:be:ab:0c:9d:a2:68:bc:
         5b:9f:49:1b:c8:23:61:0f:b7:5f:4b:91:ac:ca:cf:e4:12:91:
         44:61:c4:2e:f2:99:72:fe:b3:d8:aa:26:df:d8:bb:d8:46:d0:
         b7:f6:9f:f4:84:dc:9f:f6:65:d1:6f:ab:42:23:2c:90:66:80:
         59:c1:5b:08:df:f8:22:c5:1d:53:67:c1:2a:57:aa:9b:87:26:
         0e:55:b3:70:a7:d1:de:48:a1:7f:84:b6:84:92:33:28:25:df:
         3f:2d:b7:54:2d:01:57:cc:83:6a:71:af:c9:8c:d3:d3:ec:a5:
         19:98:e6:e2:d8:75:44:a5:92:65:8d:96:be:80:22:0f:db:7f:
         8a:3c:f5:7a:32:e5:ad:bf:73:ce:07:68:3c:84:49:25:9a:c6:
         f8:b4:5d:20:13:dc:15:fa:b8:a3:cc:c0:35:78:34:36:7e:7d:
         3f:aa:75:cc:43:30:36:56:9e:76:cb:32:a3:cb:b5:55:4d:a7:
         9a:81:6b:8d:27:20:f5:32:9f:9f:07:d8:ae:fa:9e:16:15:d4:
         33:64:e7:70:08:e3:b5:25:00:1c:0d:48:ee:0c:31:4b:5c:5d:
         b7:51:57:f5:5c:8d:02:cc:19:5d:5a:5e:84:96:57:45:e2:7b:
         c4:77:d7:59
-----BEGIN CERTIFICATE-----
MIIDXjCCAkagAwIBAgIBATANBgkqhkiG9w0BAQsFADASMRAwDgYDVQQDDAdkZXZj
ZXJ0MB4XDTIwMDQyOTE2MDAzNloXDTIyMDgwMjE2MDAzNlowFDESMBAGA1UEAwwJ
bG9jYWxob3N0MIIBIjANBgkqhkiG9w0BAQEFAAOCAQ8AMIIBCgKCAQEAm8upkzNR
2P8//Zbz10ZnX3RbLXJsW6Qa/YkOS9tiudvTn9GYSuu2czuWqBDZ+1buSUleEIZH
QdLfvCJHpDt6Z4+nHbmOIIBZIl695BlJMRRM/eDLHdw9LzG96cGBgpkNu7pCqZj+
ygO502omnlyimThCVMdIEuMIsysQTHTK+DjnTSan0t4jMekFbT9uanYDghmdAVJI
vqRymE+V0jpDmCqkoCvVcWfCk5oN4IpLixtmN0IXAXZhhwi+ZViugyW4FhjjUNPd
L1/22B+y/7PKMF0KbEC94kiYZuyO/KGDkGjjk1yHwsRA7FLDrcTPRIFVtZREhFD4
P3W0z0XilwMHmwIDAQABo4G8MIG5MAwGA1UdEwEB/wQCMAAwHQYDVR0OBBYEFKa1
imoT/7Wvl3wewmzNTO7MairlMEIGA1UdIwQ7MDmAFLKnllNCj0J5mYeJH6g6iSK8
KH2RoRakFDASMRAwDgYDVQQDDAdkZXZjZXJ0ggkAmMjtbqh4jfQwDgYDVR0PAQH/
BAQDAgWgMBMGA1UdJQQMMAoGCCsGAQUFBwMBMCEGA1UdEQQaMBiCCWxvY2FsaG9z
dIILKi5sb2NhbGhvc3QwDQYJKoZIhvcNAQELBQADggEBAEksyC9zCLO9Ah+VvqsM
naJovFufSRvII2EPt19LkazKz+QSkURhxC7ymXL+s9iqJt/Yu9hG0Lf2n/SE3J/2
ZdFvq0IjLJBmgFnBWwjf+CLFHVNnwSpXqpuHJg5Vs3Cn0d5IoX+EtoSSMygl3z8t
t1QtAVfMg2pxr8mM09PspRmY5uLYdUSlkmWNlr6AIg/bf4o89Xoy5a2/c84HaDyE
SSWaxvi0XSAT3BX6uKPMwDV4NDZ+fT+qdcxDMDZWnnbLMqPLtVVNp5qBa40nIPUy
n58H2K76nhYV1DNk53AI47UlABwNSO4MMUtcXbdRV/VcjQLMGV1aXoSWV0Xie8R3
11k=
-----END CERTIFICATE-----
